target datalayout = "e-m:e-p270:32:32-p271:32:32-p272:64:64-i64:64-i128:128-f80:128-n8:16:32:64-S128"
target triple = "x86_64-pc-linux-gnu"

%"class.llvm::BlockFrequencyInfo" = type { %"class.std::unique_ptr" }
%"class.std::unique_ptr" = type { %"struct.std::__uniq_ptr_data" }
%"struct.std::__uniq_ptr_data" = type { %"class.std::__uniq_ptr_impl" }
%"class.std::__uniq_ptr_impl" = type { %"class.std::tuple" }
%"class.std::tuple" = type { %"struct.std::_Tuple_impl" }
%"struct.std::_Tuple_impl" = type { %"struct.std::_Head_base.65" }
%"struct.std::_Head_base.65" = type { ptr }
%"class.llvm::BlockFrequencyInfoImpl" = type { %"class.llvm::BlockFrequencyInfoImplBase", ptr, ptr, ptr, %"class.std::vector.132", %"class.llvm::DenseMap.137" }
%"class.llvm::BlockFrequencyInfoImplBase" = type { ptr, %"class.std::vector.114", %"class.llvm::SparseBitVector", %"class.std::vector.122", %"class.std::__cxx11::list.127" }
%"class.std::vector.114" = type { %"struct.std::_Vector_base.115" }
%"struct.std::_Vector_base.115" = type { %"struct.std::_Vector_base<llvm::BlockFrequencyInfoImplBase::FrequencyData, std::allocator<llvm::BlockFrequencyInfoImplBase::FrequencyData>>::_Vector_impl" }
%"struct.std::_Vector_base<llvm::BlockFrequencyInfoImplBase::FrequencyData, std::allocator<llvm::BlockFrequencyInfoImplBase::FrequencyData>>::_Vector_impl" = type { %"struct.std::_Vector_base<llvm::BlockFrequencyInfoImplBase::FrequencyData, std::allocator<llvm::BlockFrequencyInfoImplBase::FrequencyData>>::_Vector_impl_data" }
%"struct.std::_Vector_base<llvm::BlockFrequencyInfoImplBase::FrequencyData, std::allocator<llvm::BlockFrequencyInfoImplBase::FrequencyData>>::_Vector_impl_data" = type { ptr, ptr, ptr }
%"class.llvm::SparseBitVector" = type { %"class.std::__cxx11::list", %"struct.std::_List_iterator" }
%"class.std::__cxx11::list" = type { %"class.std::__cxx11::_List_base" }
%"class.std::__cxx11::_List_base" = type { %"struct.std::__cxx11::_List_base<llvm::SparseBitVectorElement<>, std::allocator<llvm::SparseBitVectorElement<>>>::_List_impl" }
%"struct.std::__cxx11::_List_base<llvm::SparseBitVectorElement<>, std::allocator<llvm::SparseBitVectorElement<>>>::_List_impl" = type { %"struct.std::__detail::_List_node_header" }
%"struct.std::__detail::_List_node_header" = type { %"struct.std::__detail::_List_node_base", i64 }
%"struct.std::__detail::_List_node_base" = type { ptr, ptr }
%"struct.std::_List_iterator" = type { ptr }
%"class.std::vector.122" = type { %"struct.std::_Vector_base.123" }
%"struct.std::_Vector_base.123" = type { %"struct.std::_Vector_base<llvm::BlockFrequencyInfoImplBase::WorkingData, std::allocator<llvm::BlockFrequencyInfoImplBase::WorkingData>>::_Vector_impl" }
%"struct.std::_Vector_base<llvm::BlockFrequencyInfoImplBase::WorkingData, std::allocator<llvm::BlockFrequencyInfoImplBase::WorkingData>>::_Vector_impl" = type { %"struct.std::_Vector_base<llvm::BlockFrequencyInfoImplBase::WorkingData, std::allocator<llvm::BlockFrequencyInfoImplBase::WorkingData>>::_Vector_impl_data" }
%"struct.std::_Vector_base<llvm::BlockFrequencyInfoImplBase::WorkingData, std::allocator<llvm::BlockFrequencyInfoImplBase::WorkingData>>::_Vector_impl_data" = type { ptr, ptr, ptr }
%"class.std::__cxx11::list.127" = type { %"class.std::__cxx11::_List_base.128" }
%"class.std::__cxx11::_List_base.128" = type { %"struct.std::__cxx11::_List_base<llvm::BlockFrequencyInfoImplBase::LoopData, std::allocator<llvm::BlockFrequencyInfoImplBase::LoopData>>::_List_impl" }
%"struct.std::__cxx11::_List_base<llvm::BlockFrequencyInfoImplBase::LoopData, std::allocator<llvm::BlockFrequencyInfoImplBase::LoopData>>::_List_impl" = type { %"struct.std::__detail::_List_node_header" }
%"class.std::vector.132" = type { %"struct.std::_Vector_base.133" }
%"struct.std::_Vector_base.133" = type { %"struct.std::_Vector_base<const llvm::BasicBlock *, std::allocator<const llvm::BasicBlock *>>::_Vector_impl" }
%"struct.std::_Vector_base<const llvm::BasicBlock *, std::allocator<const llvm::BasicBlock *>>::_Vector_impl" = type { %"struct.std::_Vector_base<const llvm::BasicBlock *, std::allocator<const llvm::BasicBlock *>>::_Vector_impl_data" }
%"struct.std::_Vector_base<const llvm::BasicBlock *, std::allocator<const llvm::BasicBlock *>>::_Vector_impl_data" = type { ptr, ptr, ptr }
%"class.llvm::DenseMap.137" = type <{ ptr, i32, i32, i32, [4 x i8] }>
%"struct.llvm::BlockFrequencyInfoImplBase::BlockNode" = type { i32 }
%"class.std::optional" = type { %"struct.std::_Optional_base" }
%"struct.std::_Optional_base" = type { %"struct.std::_Optional_payload" }
%"struct.std::_Optional_payload" = type { %"struct.std::_Optional_payload_base.base", [7 x i8] }
%"struct.std::_Optional_payload_base.base" = type <{ %"union.std::_Optional_payload_base<unsigned long>::_Storage", i8 }>
%"union.std::_Optional_payload_base<unsigned long>::_Storage" = type { i64 }
%"struct.std::_Optional_payload_base" = type <{ %"union.std::_Optional_payload_base<unsigned long>::_Storage", i8, [7 x i8] }>

; Function Attrs: mustprogress nounwind uwtable
define linkonce_odr hidden noundef nonnull align 8 dereferenceable(8) ptr @_ZNSt10_Head_baseILm0EPN4llvm22BlockFrequencyInfoImplINS0_10BasicBlockEEELb0EE7_M_headERKS5_(ptr noundef nonnull align 8 dereferenceable(8) %0) #1 comdat align 2 {
  %2 = alloca ptr, align 8
  store ptr %0, ptr %2, align 8
  %3 = load ptr, ptr %2, align 8
  %4 = getelementptr inbounds nuw %"struct.std::_Head_base.65", ptr %3, i32 0, i32 0
  ret ptr %4
}

; Function Attrs: mustprogress nounwind uwtable
define linkonce_odr hidden noundef nonnull align 8 dereferenceable(8) ptr @_ZNSt11_Tuple_implILm0EJPN4llvm22BlockFrequencyInfoImplINS0_10BasicBlockEEESt14default_deleteIS3_EEE7_M_headERKS7_(ptr noundef nonnull align 8 dereferenceable(8) %0) #1 comdat align 2 {
  %2 = alloca ptr, align 8
  store ptr %0, ptr %2, align 8
  %3 = load ptr, ptr %2, align 8
  %4 = call noundef nonnull align 8 dereferenceable(8) ptr @_ZNSt10_Head_baseILm0EPN4llvm22BlockFrequencyInfoImplINS0_10BasicBlockEEELb0EE7_M_headERKS5_(ptr noundef nonnull align 8 dereferenceable(8) %3) #2
  ret ptr %4
}

; Function Attrs: mustprogress nounwind uwtable
define linkonce_odr hidden void @_ZNSt22_Optional_payload_baseImE8_StorageImLb1EEC2Ev(ptr noundef nonnull align 8 dereferenceable(8) %0) unnamed_addr #1 comdat align 2 {
  %2 = alloca ptr, align 8
  store ptr %0, ptr %2, align 8
  ret void
}

; Function Attrs: mustprogress nounwind uwtable
define linkonce_odr noundef nonnull align 8 dereferenceable(8) ptr @_ZSt12__get_helperILm0EPN4llvm22BlockFrequencyInfoImplINS0_10BasicBlockEEEJSt14default_deleteIS3_EEERKT0_RKSt11_Tuple_implIXT_EJS7_DpT1_EE(ptr noundef nonnull align 8 dereferenceable(8) %0) #1 comdat {
  %2 = alloca ptr, align 8
  store ptr %0, ptr %2, align 8
  %3 = load ptr, ptr %2, align 8
  %4 = call noundef nonnull align 8 dereferenceable(8) ptr @_ZNSt11_Tuple_implILm0EJPN4llvm22BlockFrequencyInfoImplINS0_10BasicBlockEEESt14default_deleteIS3_EEE7_M_headERKS7_(ptr noundef nonnull align 8 dereferenceable(8) %3) #2
  ret ptr %4
}

; Function Attrs: mustprogress nounwind uwtable
define linkonce_odr hidden void @_ZNSt22_Optional_payload_baseImEC2Ev(ptr noundef nonnull align 8 dereferenceable(9) %0) unnamed_addr #1 comdat align 2 {
  %2 = alloca ptr, align 8
  store ptr %0, ptr %2, align 8
  %3 = load ptr, ptr %2, align 8
  %4 = getelementptr inbounds nuw %"struct.std::_Optional_payload_base", ptr %3, i32 0, i32 0
  call void @_ZNSt22_Optional_payload_baseImE8_StorageImLb1EEC2Ev(ptr noundef nonnull align 8 dereferenceable(8) %4) #2
  %5 = getelementptr inbounds nuw %"struct.std::_Optional_payload_base", ptr %3, i32 0, i32 1
  store i8 0, ptr %5, align 8
  ret void
}

; Function Attrs: mustprogress nounwind uwtable
define linkonce_odr noundef nonnull align 8 dereferenceable(8) ptr @_ZSt3getILm0EJPN4llvm22BlockFrequencyInfoImplINS0_10BasicBlockEEESt14default_deleteIS3_EEERKNSt13tuple_elementIXT_ESt5tupleIJDpT0_EEE4typeERKSB_(ptr noundef nonnull align 8 dereferenceable(8) %0) #1 comdat {
  %2 = alloca ptr, align 8
  store ptr %0, ptr %2, align 8
  %3 = load ptr, ptr %2, align 8
  %4 = call noundef nonnull align 8 dereferenceable(8) ptr @_ZSt12__get_helperILm0EPN4llvm22BlockFrequencyInfoImplINS0_10BasicBlockEEEJSt14default_deleteIS3_EEERKT0_RKSt11_Tuple_implIXT_EJS7_DpT1_EE(ptr noundef nonnull align 8 dereferenceable(8) %3) #2
  ret ptr %4
}

; Function Attrs: mustprogress nounwind uwtable
define linkonce_odr hidden void @_ZNSt17_Optional_payloadImLb1ELb1ELb1EEC2Ev(ptr noundef nonnull align 8 dereferenceable(9) %0) unnamed_addr #1 comdat align 2 {
  %2 = alloca ptr, align 8
  store ptr %0, ptr %2, align 8
  %3 = load ptr, ptr %2, align 8
  call void @_ZNSt22_Optional_payload_baseImEC2Ev(ptr noundef nonnull align 8 dereferenceable(9) %3) #2
  ret void
}

; Function Attrs: mustprogress nounwind uwtable
define linkonce_odr hidden noundef ptr @_ZNKSt15__uniq_ptr_implIN4llvm22BlockFrequencyInfoImplINS0_10BasicBlockEEESt14default_deleteIS3_EE6_M_ptrEv(ptr noundef nonnull align 8 dereferenceable(8) %0) #1 comdat align 2 {
  %2 = alloca ptr, align 8
  store ptr %0, ptr %2, align 8
  %3 = load ptr, ptr %2, align 8
  %4 = getelementptr inbounds nuw %"class.std::__uniq_ptr_impl", ptr %3, i32 0, i32 0
  %5 = call noundef nonnull align 8 dereferenceable(8) ptr @_ZSt3getILm0EJPN4llvm22BlockFrequencyInfoImplINS0_10BasicBlockEEESt14default_deleteIS3_EEERKNSt13tuple_elementIXT_ESt5tupleIJDpT0_EEE4typeERKSB_(ptr noundef nonnull align 8 dereferenceable(8) %4) #2
  %6 = load ptr, ptr %5, align 8
  ret ptr %6
}

; Function Attrs: mustprogress nounwind uwtable
define linkonce_odr hidden noundef ptr @_ZNK4llvm22BlockFrequencyInfoImplINS_10BasicBlockEE11getFunctionEv(ptr noundef nonnull align 8 dereferenceable(184) %0) #1 comdat align 2 {
  %2 = alloca ptr, align 8
  store ptr %0, ptr %2, align 8
  %3 = load ptr, ptr %2, align 8
  %4 = getelementptr inbounds nuw %"class.llvm::BlockFrequencyInfoImpl", ptr %3, i32 0, i32 3
  %5 = load ptr, ptr %4, align 8
  ret ptr %5
}

; Function Attrs: mustprogress nounwind uwtable
define linkonce_odr hidden void @_ZNSt14_Optional_baseImLb1ELb1EEC2Ev(ptr noundef nonnull align 8 dereferenceable(16) %0) unnamed_addr #1 comdat align 2 {
  %2 = alloca ptr, align 8
  store ptr %0, ptr %2, align 8
  %3 = load ptr, ptr %2, align 8
  %4 = getelementptr inbounds nuw %"struct.std::_Optional_base", ptr %3, i32 0, i32 0
  call void @_ZNSt17_Optional_payloadImLb1ELb1ELb1EEC2Ev(ptr noundef nonnull align 8 dereferenceable(9) %4) #2
  ret void
}

; Function Attrs: mustprogress nounwind uwtable
define linkonce_odr hidden noundef ptr @_ZNKSt10unique_ptrIN4llvm22BlockFrequencyInfoImplINS0_10BasicBlockEEESt14default_deleteIS3_EE3getEv(ptr noundef nonnull align 8 dereferenceable(8) %0) #1 comdat align 2 {
  %2 = alloca ptr, align 8
  store ptr %0, ptr %2, align 8
  %3 = load ptr, ptr %2, align 8
  %4 = getelementptr inbounds nuw %"class.std::unique_ptr", ptr %3, i32 0, i32 0
  %5 = call noundef ptr @_ZNKSt15__uniq_ptr_implIN4llvm22BlockFrequencyInfoImplINS0_10BasicBlockEEESt14default_deleteIS3_EE6_M_ptrEv(ptr noundef nonnull align 8 dereferenceable(8) %4) #2
  ret ptr %5
}

; Function Attrs: mustprogress nounwind uwtable
define linkonce_odr hidden { i64, i8 } @_ZNK4llvm22BlockFrequencyInfoImplINS_10BasicBlockEE20getBlockProfileCountERKNS_8FunctionEPKS1_b(ptr noundef nonnull align 8 dereferenceable(184) %0, ptr noundef nonnull align 8 dereferenceable(136) %1, ptr noundef %2, i1 noundef zeroext %3) #1 comdat align 2 {
  %5 = alloca %"class.std::optional", align 8
  %6 = alloca ptr, align 8
  %7 = alloca ptr, align 8
  %8 = alloca ptr, align 8
  %9 = alloca i8, align 1
  %10 = alloca %"struct.llvm::BlockFrequencyInfoImplBase::BlockNode", align 4
  store ptr %0, ptr %6, align 8
  store ptr %1, ptr %7, align 8
  store ptr %2, ptr %8, align 8
  %11 = zext i1 %3 to i8
  store i8 %11, ptr %9, align 1
  %12 = load ptr, ptr %6, align 8
  %13 = load ptr, ptr %7, align 8
  %14 = load ptr, ptr %8, align 8
  %15 = call i32 @_ZNK4llvm22BlockFrequencyInfoImplINS_10BasicBlockEE7getNodeEPKS1_(ptr noundef nonnull align 8 dereferenceable(184) %12, ptr noundef %14)
  %16 = getelementptr inbounds nuw %"struct.llvm::BlockFrequencyInfoImplBase::BlockNode", ptr %10, i32 0, i32 0
  store i32 %15, ptr %16, align 4
  %17 = load i8, ptr %9, align 1
  %18 = trunc i8 %17 to i1
  %19 = call { i64, i8 } @_ZNK4llvm26BlockFrequencyInfoImplBase20getBlockProfileCountERKNS_8FunctionERKNS0_9BlockNodeEb(ptr noundef nonnull align 8 dereferenceable(112) %12, ptr noundef nonnull align 8 dereferenceable(136) %13, ptr noundef nonnull align 4 dereferenceable(4) %10, i1 noundef zeroext %18)
  %20 = getelementptr inbounds nuw %"class.std::optional", ptr %5, i32 0, i32 0
  %21 = getelementptr inbounds nuw %"struct.std::_Optional_base", ptr %20, i32 0, i32 0
  %22 = getelementptr inbounds nuw { i64, i8 }, ptr %21, i32 0, i32 0
  %23 = extractvalue { i64, i8 } %19, 0
  store i64 %23, ptr %22, align 8
  %24 = getelementptr inbounds nuw { i64, i8 }, ptr %21, i32 0, i32 1
  %25 = extractvalue { i64, i8 } %19, 1
  store i8 %25, ptr %24, align 8
  %26 = getelementptr inbounds nuw %"class.std::optional", ptr %5, i32 0, i32 0
  %27 = getelementptr inbounds nuw %"struct.std::_Optional_base", ptr %26, i32 0, i32 0
  %28 = load { i64, i8 }, ptr %27, align 8
  ret { i64, i8 } %28
}

; Function Attrs: mustprogress nounwind uwtable
define dso_local noundef ptr @_ZNK4llvm18BlockFrequencyInfo11getFunctionEv(ptr noundef nonnull align 8 dereferenceable(8) %0) #1 align 2 {
  %2 = alloca ptr, align 8
  store ptr %0, ptr %2, align 8
  %3 = load ptr, ptr %2, align 8
  %4 = getelementptr inbounds nuw %"class.llvm::BlockFrequencyInfo", ptr %3, i32 0, i32 0
  %5 = call noundef zeroext i1 @_ZNKSt10unique_ptrIN4llvm22BlockFrequencyInfoImplINS0_10BasicBlockEEESt14default_deleteIS3_EEcvbEv(ptr noundef nonnull align 8 dereferenceable(8) %4) #2
  br i1 %5, label %6, label %10

6:                                                ; preds = %1
  %7 = getelementptr inbounds nuw %"class.llvm::BlockFrequencyInfo", ptr %3, i32 0, i32 0
  %8 = call noundef ptr @_ZNKSt10unique_ptrIN4llvm22BlockFrequencyInfoImplINS0_10BasicBlockEEESt14default_deleteIS3_EEptEv(ptr noundef nonnull align 8 dereferenceable(8) %7) #2
  %9 = call noundef ptr @_ZNK4llvm22BlockFrequencyInfoImplINS_10BasicBlockEE11getFunctionEv(ptr noundef nonnull align 8 dereferenceable(184) %8)
  br label %11

10:                                               ; preds = %1
  br label %11

11:                                               ; preds = %10, %6
  %12 = phi ptr [ %9, %6 ], [ null, %10 ]
  ret ptr %12
}

; Function Attrs: mustprogress nounwind uwtable
define linkonce_odr hidden noundef ptr @_ZNKSt10unique_ptrIN4llvm22BlockFrequencyInfoImplINS0_10BasicBlockEEESt14default_deleteIS3_EEptEv(ptr noundef nonnull align 8 dereferenceable(8) %0) #1 comdat align 2 {
  %2 = alloca ptr, align 8
  store ptr %0, ptr %2, align 8
  %3 = load ptr, ptr %2, align 8
  %4 = call noundef ptr @_ZNKSt10unique_ptrIN4llvm22BlockFrequencyInfoImplINS0_10BasicBlockEEESt14default_deleteIS3_EE3getEv(ptr noundef nonnull align 8 dereferenceable(8) %3) #2
  ret ptr %4
}

; Function Attrs: mustprogress nounwind uwtable
define linkonce_odr hidden void @_ZNSt8optionalImEC2ESt9nullopt_t(ptr noundef nonnull align 8 dereferenceable(16) %0) unnamed_addr #1 comdat align 2 {
  %2 = alloca ptr, align 8
  store ptr %0, ptr %2, align 8
  %3 = load ptr, ptr %2, align 8
  call void @_ZNSt14_Optional_baseImLb1ELb1EEC2Ev(ptr noundef nonnull align 8 dereferenceable(16) %3) #2
  ret void
}

; Function Attrs: mustprogress nounwind uwtable
define linkonce_odr hidden noundef zeroext i1 @_ZNKSt10unique_ptrIN4llvm22BlockFrequencyInfoImplINS0_10BasicBlockEEESt14default_deleteIS3_EEcvbEv(ptr noundef nonnull align 8 dereferenceable(8) %0) #1 comdat align 2 {
  %2 = alloca ptr, align 8
  store ptr %0, ptr %2, align 8
  %3 = load ptr, ptr %2, align 8
  %4 = call noundef ptr @_ZNKSt10unique_ptrIN4llvm22BlockFrequencyInfoImplINS0_10BasicBlockEEESt14default_deleteIS3_EE3getEv(ptr noundef nonnull align 8 dereferenceable(8) %3) #2
  %5 = icmp eq ptr %4, null
  %6 = select i1 %5, i1 false, i1 true
  ret i1 %6
}

; Function Attrs: mustprogress nounwind uwtable
define dso_local { i64, i8 } @_ZNK4llvm18BlockFrequencyInfo20getBlockProfileCountEPKNS_10BasicBlockEb(ptr noundef nonnull align 8 dereferenceable(8) %0, ptr noundef %1, i1 noundef zeroext %2) #1 align 2 {
  %4 = alloca %"class.std::optional", align 8
  %5 = alloca ptr, align 8
  %6 = alloca ptr, align 8
  %7 = alloca i8, align 1
  store ptr %0, ptr %5, align 8
  store ptr %1, ptr %6, align 8
  %8 = zext i1 %2 to i8
  store i8 %8, ptr %7, align 1
  %9 = load ptr, ptr %5, align 8
  %10 = getelementptr inbounds nuw %"class.llvm::BlockFrequencyInfo", ptr %9, i32 0, i32 0
  %11 = call noundef zeroext i1 @_ZNKSt10unique_ptrIN4llvm22BlockFrequencyInfoImplINS0_10BasicBlockEEESt14default_deleteIS3_EEcvbEv(ptr noundef nonnull align 8 dereferenceable(8) %10) #2
  br i1 %11, label %13, label %12

12:                                               ; preds = %3
  call void @_ZNSt8optionalImEC2ESt9nullopt_t(ptr noundef nonnull align 8 dereferenceable(16) %4) #2
  br label %27

13:                                               ; preds = %3
  %14 = getelementptr inbounds nuw %"class.llvm::BlockFrequencyInfo", ptr %9, i32 0, i32 0
  %15 = call noundef ptr @_ZNKSt10unique_ptrIN4llvm22BlockFrequencyInfoImplINS0_10BasicBlockEEESt14default_deleteIS3_EEptEv(ptr noundef nonnull align 8 dereferenceable(8) %14) #2
  %16 = call noundef ptr @_ZNK4llvm18BlockFrequencyInfo11getFunctionEv(ptr noundef nonnull align 8 dereferenceable(8) %9)
  %17 = load ptr, ptr %6, align 8
  %18 = load i8, ptr %7, align 1
  %19 = trunc i8 %18 to i1
  %20 = call { i64, i8 } @_ZNK4llvm22BlockFrequencyInfoImplINS_10BasicBlockEE20getBlockProfileCountERKNS_8FunctionEPKS1_b(ptr noundef nonnull align 8 dereferenceable(184) %15, ptr noundef nonnull align 8 dereferenceable(136) %16, ptr noundef %17, i1 noundef zeroext %19)
  %21 = getelementptr inbounds nuw %"class.std::optional", ptr %4, i32 0, i32 0
  %22 = getelementptr inbounds nuw %"struct.std::_Optional_base", ptr %21, i32 0, i32 0
  %23 = getelementptr inbounds nuw { i64, i8 }, ptr %22, i32 0, i32 0
  %24 = extractvalue { i64, i8 } %20, 0
  store i64 %24, ptr %23, align 8
  %25 = getelementptr inbounds nuw { i64, i8 }, ptr %22, i32 0, i32 1
  %26 = extractvalue { i64, i8 } %20, 1
  store i8 %26, ptr %25, align 8
  br label %27

27:                                               ; preds = %13, %12
  %28 = getelementptr inbounds nuw %"class.std::optional", ptr %4, i32 0, i32 0
  %29 = getelementptr inbounds nuw %"struct.std::_Optional_base", ptr %28, i32 0, i32 0
  %30 = load { i64, i8 }, ptr %29, align 8
  ret { i64, i8 } %30
}