; Function Attrs: mustprogress nounwind uwtable
define dso_local { i64, i8 } @_ZNK4llvm18BlockFrequencyInfo20getBlockProfileCountEPKNS_10BasicBlockEb(ptr nocapture noundef nonnull readonly align 8 dereferenceable(8) %0, ptr noundef %1, i1 noundef zeroext %2) local_unnamed_addr #0 align 2 {
  %4 = alloca %"struct.llvm::BlockFrequencyInfoImplBase::BlockNode", align 4
  %5 = load ptr, ptr %0, align 8
  %.not = icmp eq ptr %5, null
  br i1 %.not, label %12, label %_ZNK4llvm18BlockFrequencyInfo11getFunctionEv.exit

_ZNK4llvm18BlockFrequencyInfo11getFunctionEv.exit: ; preds = %3
  %6 = getelementptr inbounds nuw i8, ptr %5, i64 128
  %7 = load ptr, ptr %6, align 8
  call void @llvm.lifetime.start.p0(i64 4, ptr nonnull %4)
  %8 = tail call i32 @_ZNK4llvm22BlockFrequencyInfoImplINS_10BasicBlockEE7getNodeEPKS1_(ptr noundef nonnull align 8 dereferenceable(184) %5, ptr noundef %1)
  store i32 %8, ptr %4, align 4
  %9 = call { i64, i8 } @_ZNK4llvm26BlockFrequencyInfoImplBase20getBlockProfileCountERKNS_8FunctionERKNS0_9BlockNodeEb(ptr noundef nonnull align 8 dereferenceable(112) %5, ptr noundef nonnull align 8 dereferenceable(136) %7, ptr noundef nonnull align 4 dereferenceable(4) %4, i1 noundef zeroext %2) #23
  call void @llvm.lifetime.end.p0(i64 4, ptr nonnull %4)
  %10 = extractvalue { i64, i8 } %9, 0
  %11 = extractvalue { i64, i8 } %9, 1
  br label %12

12:                                               ; preds = %3, %_ZNK4llvm18BlockFrequencyInfo11getFunctionEv.exit
  %.sroa.2.0 = phi i8 [ %11, %_ZNK4llvm18BlockFrequencyInfo11getFunctionEv.exit ], [ 0, %3 ]
  %.sroa.0.0 = phi i64 [ %10, %_ZNK4llvm18BlockFrequencyInfo11getFunctionEv.exit ], [ undef, %3 ]
  %.fca.0.insert = insertvalue { i64, i8 } poison, i64 %.sroa.0.0, 0
  %.fca.1.insert = insertvalue { i64, i8 } %.fca.0.insert, i8 %.sroa.2.0, 1
  ret { i64, i8 } %.fca.1.insert
}